; Function Attrs: mustprogress uwtable
define internal fastcc void @_ZN12_GLOBAL__N_129insert_version_to_json_objectERN5vcpkg4Json6ObjectERKNS0_7VersionENS0_13StringLiteralE(ptr noundef nonnull align 8 dereferenceable(24) %0, ptr noundef nonnull align 8 dereferenceable(36) %1, ptr %2, i64 range(i64 7, 15) %3) unnamed_addr #5 personality ptr @__gxx_personality_v0 {
  %5 = alloca %"class.std::__cxx11::basic_string", align 8
  %6 = alloca %"struct.vcpkg::StringView", align 8
  %7 = alloca %"struct.vcpkg::Json::Value", align 8
  %8 = alloca %"struct.vcpkg::Json::Value", align 8
  call void @llvm.lifetime.start.p0(i64 8, ptr nonnull %7) #23
  call void @llvm.lifetime.start.p0(i64 32, ptr nonnull %5) #23, !noalias !426
  call void @llvm.lifetime.start.p0(i64 16, ptr nonnull %6) #23, !noalias !426
  call void @_ZN5vcpkg10StringViewC1ERKNSt7__cxx1112basic_stringIcSt11char_traitsIcESaIcEEE(ptr noundef nonnull align 8 dereferenceable(16) %6, ptr noundef nonnull align 8 dereferenceable(32) %1) #23, !noalias !426
  invoke void @_ZNK5vcpkg10StringView9to_stringB5cxx11Ev(ptr dead_on_unwind nonnull writable sret(%"class.std::__cxx11::basic_string") align 8 %5, ptr noundef nonnull align 8 dereferenceable(16) %6)
          to label %9 unwind label %18, !noalias !426

9:                                                ; preds = %4
  call void @_ZN5vcpkg4Json5Value6stringEONSt7__cxx1112basic_stringIcSt11char_traitsIcESaIcEEE(ptr dead_on_unwind nonnull writable sret(%"struct.vcpkg::Json::Value") align 8 %7, ptr noundef nonnull align 8 dereferenceable(32) %5) #23
  %10 = load ptr, ptr %5, align 8, !tbaa !28, !noalias !426
  %11 = getelementptr inbounds nuw i8, ptr %5, i64 16
  %12 = icmp eq ptr %10, %11
  br i1 %12, label %_ZNKSt7__cxx1112basic_stringIcSt11char_traitsIcESaIcEE11_M_is_localEv.exit.thread.i.i.i, label %_ZNKSt7__cxx1112basic_stringIcSt11char_traitsIcESaIcEE11_M_is_localEv.exit.i.i.i

_ZNKSt7__cxx1112basic_stringIcSt11char_traitsIcESaIcEE11_M_is_localEv.exit.thread.i.i.i: ; preds = %9
  %13 = getelementptr inbounds nuw i8, ptr %5, i64 8
  %14 = load i64, ptr %13, align 8, !tbaa !31, !noalias !426
  %15 = icmp ult i64 %14, 16
  call void @llvm.assume(i1 %15)
  br label %_ZN5vcpkg4Json5Value6stringINSt7__cxx1112basic_stringIcSt11char_traitsIcESaIcEEETnNSt9enable_ifIXsr3stdE18is_constructible_vINS_10StringViewERKT_EEiE4typeELi0EEES1_SD_.exit

_ZNKSt7__cxx1112basic_stringIcSt11char_traitsIcESaIcEE11_M_is_localEv.exit.i.i.i: ; preds = %9
  %16 = load i64, ptr %11, align 8, !tbaa !32, !noalias !426
  %17 = add i64 %16, 1
  call void @_ZdlPvm(ptr noundef %10, i64 noundef %17) #26
  br label %_ZN5vcpkg4Json5Value6stringINSt7__cxx1112basic_stringIcSt11char_traitsIcESaIcEEETnNSt9enable_ifIXsr3stdE18is_constructible_vINS_10StringViewERKT_EEiE4typeELi0EEES1_SD_.exit

18:                                               ; preds = %4
  %19 = landingpad { ptr, i32 }
          catch ptr null
  %20 = extractvalue { ptr, i32 } %19, 0
  call void @__clang_call_terminate(ptr %20) #28, !noalias !426
  unreachable

_ZN5vcpkg4Json5Value6stringINSt7__cxx1112basic_stringIcSt11char_traitsIcESaIcEEETnNSt9enable_ifIXsr3stdE18is_constructible_vINS_10StringViewERKT_EEiE4typeELi0EEES1_SD_.exit: ; preds = %_ZNKSt7__cxx1112basic_stringIcSt11char_traitsIcESaIcEE11_M_is_localEv.exit.thread.i.i.i, %_ZNKSt7__cxx1112basic_stringIcSt11char_traitsIcESaIcEE11_M_is_localEv.exit.i.i.i
  call void @llvm.lifetime.end.p0(i64 16, ptr nonnull %6) #23, !noalias !426
  call void @llvm.lifetime.end.p0(i64 32, ptr nonnull %5) #23, !noalias !426
  %21 = invoke noundef nonnull align 8 dereferenceable(8) ptr @_ZN5vcpkg4Json6Object6insertENS_10StringViewEONS0_5ValueE(ptr noundef nonnull align 8 dereferenceable(24) %0, ptr %2, i64 %3, ptr noundef nonnull align 8 dereferenceable(8) %7)
          to label %22 unwind label %28

22:                                               ; preds = %_ZN5vcpkg4Json5Value6stringINSt7__cxx1112basic_stringIcSt11char_traitsIcESaIcEEETnNSt9enable_ifIXsr3stdE18is_constructible_vINS_10StringViewERKT_EEiE4typeELi0EEES1_SD_.exit
  call void @_ZN5vcpkg4Json5ValueD1Ev(ptr noundef nonnull align 8 dereferenceable(8) %7) #23
  call void @llvm.lifetime.end.p0(i64 8, ptr nonnull %7) #23
  call void @llvm.lifetime.start.p0(i64 8, ptr nonnull %8) #23
  %23 = getelementptr inbounds nuw i8, ptr %1, i64 32
  %24 = load i32, ptr %23, align 8, !tbaa !146
  %25 = sext i32 %24 to i64
  call void @_ZN5vcpkg4Json5Value7integerEl(ptr dead_on_unwind nonnull writable sret(%"struct.vcpkg::Json::Value") align 8 %8, i64 noundef %25) #23
  %26 = invoke noundef nonnull align 8 dereferenceable(8) ptr @_ZN5vcpkg4Json6Object6insertENS_10StringViewEONS0_5ValueE(ptr noundef nonnull align 8 dereferenceable(24) %0, ptr nonnull @.str.58, i64 12, ptr noundef nonnull align 8 dereferenceable(8) %8)
          to label %27 unwind label %30

27:                                               ; preds = %22
  call void @_ZN5vcpkg4Json5ValueD1Ev(ptr noundef nonnull align 8 dereferenceable(8) %8) #23
  call void @llvm.lifetime.end.p0(i64 8, ptr nonnull %8) #23
  ret void

28:                                               ; preds = %_ZN5vcpkg4Json5Value6stringINSt7__cxx1112basic_stringIcSt11char_traitsIcESaIcEEETnNSt9enable_ifIXsr3stdE18is_constructible_vINS_10StringViewERKT_EEiE4typeELi0EEES1_SD_.exit
  %29 = landingpad { ptr, i32 }
          cleanup
  call void @_ZN5vcpkg4Json5ValueD1Ev(ptr noundef nonnull align 8 dereferenceable(8) %7) #23
  call void @llvm.lifetime.end.p0(i64 8, ptr nonnull %7) #23
  br label %32

30:                                               ; preds = %22
  %31 = landingpad { ptr, i32 }
          cleanup
  call void @_ZN5vcpkg4Json5ValueD1Ev(ptr noundef nonnull align 8 dereferenceable(8) %8) #23
  call void @llvm.lifetime.end.p0(i64 8, ptr nonnull %8) #23
  br label %32

32:                                               ; preds = %30, %28
  %.pn = phi { ptr, i32 } [ %31, %30 ], [ %29, %28 ]
  resume { ptr, i32 } %.pn
}